target datalayout = "e-m:e-p270:32:32-p271:32:32-p272:64:64-i64:64-i128:128-f80:128-n8:16:32:64-S128"
target triple = "x86_64-pc-linux-gnu"

%struct.AVFilterContext = type { ptr, ptr, ptr, ptr, ptr, i32, ptr, ptr, i32, ptr, ptr, i32, i32, ptr, ptr, ptr, ptr, i32, ptr, i32, i32 }
%struct.FieldMatchContext = type { ptr, ptr, ptr, ptr, ptr, ptr, ptr, [2 x i32], [2 x i32], [2 x i32], i32, i32, i64, i64, i32, i32, i32, i32, i32, i32, i32, i64, double, i32, i32, i32, i32, i32, i32, i32, [4 x ptr], [4 x i32], [4 x ptr], [4 x i32], ptr, i32, i32, ptr }
%struct.AVFilterFormatsConfig = type { ptr, ptr, ptr, ptr, ptr }
%struct.AVFilterLink = type { ptr, ptr, ptr, ptr, i32, i32, i32, i32, %struct.AVRational, i32, i32, i32, %struct.AVChannelLayout, %struct.AVRational, ptr, i32, %struct.AVFilterFormatsConfig, %struct.AVFilterFormatsConfig }
%struct.AVChannelLayout = type { i32, i32, %union.anon.1, ptr }
%union.anon.1 = type { i64 }
%struct.AVRational = type { i32, i32 }
%struct.AVPixFmtDescriptor = type { ptr, i8, i8, i8, i64, [4 x %struct.AVComponentDescriptor], ptr }
%struct.AVComponentDescriptor = type { i32, i32, i32, i32, i32 }

; Function Attrs: nounwind uwtable
define internal i32 @config_input(ptr noundef %0) #1 {
  %2 = alloca i32, align 4
  %3 = alloca ptr, align 8
  %4 = alloca i32, align 4
  %5 = alloca ptr, align 8
  %6 = alloca ptr, align 8
  %7 = alloca ptr, align 8
  %8 = alloca i32, align 4
  %9 = alloca i32, align 4
  %10 = alloca i32, align 4
  store ptr %0, ptr %3, align 8, !tbaa !51
  call void @llvm.lifetime.start.p0(i64 4, ptr %4) #10
  call void @llvm.lifetime.start.p0(i64 8, ptr %5) #10
  %11 = load ptr, ptr %3, align 8, !tbaa !51
  %12 = getelementptr inbounds nuw %struct.AVFilterLink, ptr %11, i32 0, i32 2
  %13 = load ptr, ptr %12, align 8, !tbaa !77
  store ptr %13, ptr %5, align 8, !tbaa !4
  call void @llvm.lifetime.start.p0(i64 8, ptr %6) #10
  %14 = load ptr, ptr %5, align 8, !tbaa !4
  %15 = getelementptr inbounds nuw %struct.AVFilterContext, ptr %14, i32 0, i32 9
  %16 = load ptr, ptr %15, align 8, !tbaa !9
  store ptr %16, ptr %6, align 8, !tbaa !22
  call void @llvm.lifetime.start.p0(i64 8, ptr %7) #10
  %17 = load ptr, ptr %3, align 8, !tbaa !51
  %18 = getelementptr inbounds nuw %struct.AVFilterLink, ptr %17, i32 0, i32 5
  %19 = load i32, ptr %18, align 4, !tbaa !68
  %20 = call ptr @av_pix_fmt_desc_get(i32 noundef %19)
  store ptr %20, ptr %7, align 8, !tbaa !69
  call void @llvm.lifetime.start.p0(i64 4, ptr %8) #10
  %21 = load ptr, ptr %3, align 8, !tbaa !51
  %22 = getelementptr inbounds nuw %struct.AVFilterLink, ptr %21, i32 0, i32 6
  %23 = load i32, ptr %22, align 8, !tbaa !75
  store i32 %23, ptr %8, align 4, !tbaa !24
  call void @llvm.lifetime.start.p0(i64 4, ptr %9) #10
  %24 = load ptr, ptr %3, align 8, !tbaa !51
  %25 = getelementptr inbounds nuw %struct.AVFilterLink, ptr %24, i32 0, i32 7
  %26 = load i32, ptr %25, align 4, !tbaa !76
  store i32 %26, ptr %9, align 4, !tbaa !24
  %27 = load i32, ptr %8, align 4, !tbaa !24
  %28 = load i32, ptr %9, align 4, !tbaa !24
  %29 = mul nsw i32 %27, %28
  %30 = sitofp i32 %29 to double
  %31 = fmul nsz double %30, 2.550000e+02
  %32 = load ptr, ptr %6, align 8, !tbaa !22
  %33 = getelementptr inbounds nuw %struct.FieldMatchContext, ptr %32, i32 0, i32 22
  %34 = load double, ptr %33, align 8, !tbaa !78
  %35 = fmul nsz double %31, %34
  %36 = fdiv nsz double %35, 1.000000e+02
  %37 = fptosi double %36 to i64
  %38 = load ptr, ptr %6, align 8, !tbaa !22
  %39 = getelementptr inbounds nuw %struct.FieldMatchContext, ptr %38, i32 0, i32 21
  store i64 %37, ptr %39, align 8, !tbaa !79
  %40 = load ptr, ptr %6, align 8, !tbaa !22
  %41 = getelementptr inbounds nuw %struct.FieldMatchContext, ptr %40, i32 0, i32 30
  %42 = getelementptr inbounds [4 x ptr], ptr %41, i64 0, i64 0
  %43 = load ptr, ptr %6, align 8, !tbaa !22
  %44 = getelementptr inbounds nuw %struct.FieldMatchContext, ptr %43, i32 0, i32 31
  %45 = getelementptr inbounds [4 x i32], ptr %44, i64 0, i64 0
  %46 = load i32, ptr %8, align 4, !tbaa !24
  %47 = load i32, ptr %9, align 4, !tbaa !24
  %48 = load ptr, ptr %3, align 8, !tbaa !51
  %49 = getelementptr inbounds nuw %struct.AVFilterLink, ptr %48, i32 0, i32 5
  %50 = load i32, ptr %49, align 4, !tbaa !68
  %51 = call i32 @av_image_alloc(ptr noundef %42, ptr noundef %45, i32 noundef %46, i32 noundef %47, i32 noundef %50, i32 noundef 32)
  store i32 %51, ptr %4, align 4, !tbaa !24
  %52 = icmp slt i32 %51, 0
  br i1 %52, label %67, label %53

53:                                               ; preds = %1
  %54 = load ptr, ptr %6, align 8, !tbaa !22
  %55 = getelementptr inbounds nuw %struct.FieldMatchContext, ptr %54, i32 0, i32 32
  %56 = getelementptr inbounds [4 x ptr], ptr %55, i64 0, i64 0
  %57 = load ptr, ptr %6, align 8, !tbaa !22
  %58 = getelementptr inbounds nuw %struct.FieldMatchContext, ptr %57, i32 0, i32 33
  %59 = getelementptr inbounds [4 x i32], ptr %58, i64 0, i64 0
  %60 = load i32, ptr %8, align 4, !tbaa !24
  %61 = load i32, ptr %9, align 4, !tbaa !24
  %62 = load ptr, ptr %3, align 8, !tbaa !51
  %63 = getelementptr inbounds nuw %struct.AVFilterLink, ptr %62, i32 0, i32 5
  %64 = load i32, ptr %63, align 4, !tbaa !68
  %65 = call i32 @av_image_alloc(ptr noundef %56, ptr noundef %59, i32 noundef %60, i32 noundef %61, i32 noundef %64, i32 noundef 32)
  store i32 %65, ptr %4, align 4, !tbaa !24
  %66 = icmp slt i32 %65, 0
  br i1 %66, label %67, label %69

67:                                               ; preds = %53, %1
  %68 = load i32, ptr %4, align 4, !tbaa !24
  store i32 %68, ptr %2, align 4
  store i32 1, ptr %10, align 4
  br label %174

69:                                               ; preds = %53
  %70 = load ptr, ptr %7, align 8, !tbaa !69
  %71 = getelementptr inbounds nuw %struct.AVPixFmtDescriptor, ptr %70, i32 0, i32 2
  %72 = load i8, ptr %71, align 1, !tbaa !80
  %73 = zext i8 %72 to i32
  %74 = load ptr, ptr %6, align 8, !tbaa !22
  %75 = getelementptr inbounds nuw %struct.FieldMatchContext, ptr %74, i32 0, i32 8
  %76 = getelementptr inbounds [2 x i32], ptr %75, i64 0, i64 0
  store i32 %73, ptr %76, align 8, !tbaa !24
  %77 = load ptr, ptr %7, align 8, !tbaa !69
  %78 = getelementptr inbounds nuw %struct.AVPixFmtDescriptor, ptr %77, i32 0, i32 3
  %79 = load i8, ptr %78, align 2, !tbaa !82
  %80 = zext i8 %79 to i32
  %81 = load ptr, ptr %6, align 8, !tbaa !22
  %82 = getelementptr inbounds nuw %struct.FieldMatchContext, ptr %81, i32 0, i32 9
  %83 = getelementptr inbounds [2 x i32], ptr %82, i64 0, i64 0
  store i32 %80, ptr %83, align 8, !tbaa !24
  %84 = load ptr, ptr %6, align 8, !tbaa !22
  %85 = getelementptr inbounds nuw %struct.FieldMatchContext, ptr %84, i32 0, i32 15
  %86 = load i32, ptr %85, align 4, !tbaa !25
  %87 = icmp ne i32 %86, 0
  br i1 %87, label %88, label %111

88:                                               ; preds = %69
  %89 = load ptr, ptr %5, align 8, !tbaa !4
  %90 = getelementptr inbounds nuw %struct.AVFilterContext, ptr %89, i32 0, i32 4
  %91 = load ptr, ptr %90, align 8, !tbaa !54
  %92 = getelementptr inbounds ptr, ptr %91, i64 1
  %93 = load ptr, ptr %92, align 8, !tbaa !51
  %94 = getelementptr inbounds nuw %struct.AVFilterLink, ptr %93, i32 0, i32 5
  %95 = load i32, ptr %94, align 4, !tbaa !68
  %96 = call ptr @av_pix_fmt_desc_get(i32 noundef %95)
  store ptr %96, ptr %7, align 8, !tbaa !69
  %97 = load ptr, ptr %7, align 8, !tbaa !69
  %98 = getelementptr inbounds nuw %struct.AVPixFmtDescriptor, ptr %97, i32 0, i32 2
  %99 = load i8, ptr %98, align 1, !tbaa !80
  %100 = zext i8 %99 to i32
  %101 = load ptr, ptr %6, align 8, !tbaa !22
  %102 = getelementptr inbounds nuw %struct.FieldMatchContext, ptr %101, i32 0, i32 8
  %103 = getelementptr inbounds [2 x i32], ptr %102, i64 0, i64 1
  store i32 %100, ptr %103, align 4, !tbaa !24
  %104 = load ptr, ptr %7, align 8, !tbaa !69
  %105 = getelementptr inbounds nuw %struct.AVPixFmtDescriptor, ptr %104, i32 0, i32 3
  %106 = load i8, ptr %105, align 2, !tbaa !82
  %107 = zext i8 %106 to i32
  %108 = load ptr, ptr %6, align 8, !tbaa !22
  %109 = getelementptr inbounds nuw %struct.FieldMatchContext, ptr %108, i32 0, i32 9
  %110 = getelementptr inbounds [2 x i32], ptr %109, i64 0, i64 1
  store i32 %107, ptr %110, align 4, !tbaa !24
  br label %111

111:                                              ; preds = %88, %69
  %112 = load i32, ptr %8, align 4, !tbaa !24
  %113 = add nsw i32 %112, 16
  %114 = sub nsw i32 %113, 1
  %115 = and i32 %114, -16
  %116 = load ptr, ptr %6, align 8, !tbaa !22
  %117 = getelementptr inbounds nuw %struct.FieldMatchContext, ptr %116, i32 0, i32 35
  store i32 %115, ptr %117, align 8, !tbaa !83
  %118 = load i32, ptr %8, align 4, !tbaa !24
  %119 = ashr i32 %118, 1
  %120 = add nsw i32 %119, 16
  %121 = sub nsw i32 %120, 1
  %122 = and i32 %121, -16
  %123 = load ptr, ptr %6, align 8, !tbaa !22
  %124 = getelementptr inbounds nuw %struct.FieldMatchContext, ptr %123, i32 0, i32 36
  store i32 %122, ptr %124, align 4, !tbaa !84
  %125 = load i32, ptr %9, align 4, !tbaa !24
  %126 = sdiv i32 %125, 2
  %127 = add nsw i32 %126, 4
  %128 = load ptr, ptr %6, align 8, !tbaa !22
  %129 = getelementptr inbounds nuw %struct.FieldMatchContext, ptr %128, i32 0, i32 35
  %130 = load i32, ptr %129, align 8, !tbaa !83
  %131 = mul nsw i32 %127, %130
  %132 = sext i32 %131 to i64
  %133 = call noalias ptr @av_calloc(i64 noundef %132, i64 noundef 1)
  %134 = load ptr, ptr %6, align 8, !tbaa !22
  %135 = getelementptr inbounds nuw %struct.FieldMatchContext, ptr %134, i32 0, i32 37
  store ptr %133, ptr %135, align 8, !tbaa !85
  %136 = load i32, ptr %8, align 4, !tbaa !24
  %137 = load ptr, ptr %6, align 8, !tbaa !22
  %138 = getelementptr inbounds nuw %struct.FieldMatchContext, ptr %137, i32 0, i32 27
  %139 = load i32, ptr %138, align 8, !tbaa !34
  %140 = sdiv i32 %139, 2
  %141 = add nsw i32 %136, %140
  %142 = load ptr, ptr %6, align 8, !tbaa !22
  %143 = getelementptr inbounds nuw %struct.FieldMatchContext, ptr %142, i32 0, i32 27
  %144 = load i32, ptr %143, align 8, !tbaa !34
  %145 = sdiv i32 %141, %144
  %146 = add nsw i32 %145, 1
  %147 = load i32, ptr %9, align 4, !tbaa !24
  %148 = load ptr, ptr %6, align 8, !tbaa !22
  %149 = getelementptr inbounds nuw %struct.FieldMatchContext, ptr %148, i32 0, i32 28
  %150 = load i32, ptr %149, align 4, !tbaa !35
  %151 = sdiv i32 %150, 2
  %152 = add nsw i32 %147, %151
  %153 = load ptr, ptr %6, align 8, !tbaa !22
  %154 = getelementptr inbounds nuw %struct.FieldMatchContext, ptr %153, i32 0, i32 28
  %155 = load i32, ptr %154, align 4, !tbaa !35
  %156 = sdiv i32 %152, %155
  %157 = add nsw i32 %156, 1
  %158 = mul nsw i32 %146, %157
  %159 = sext i32 %158 to i64
  %160 = call ptr @av_malloc_array(i64 noundef %159, i64 noundef 16)
  %161 = load ptr, ptr %6, align 8, !tbaa !22
  %162 = getelementptr inbounds nuw %struct.FieldMatchContext, ptr %161, i32 0, i32 34
  store ptr %160, ptr %162, align 8, !tbaa !86
  %163 = load ptr, ptr %6, align 8, !tbaa !22
  %164 = getelementptr inbounds nuw %struct.FieldMatchContext, ptr %163, i32 0, i32 37
  %165 = load ptr, ptr %164, align 8, !tbaa !85
  %166 = icmp ne ptr %165, null
  br i1 %166, label %167, label %172

167:                                              ; preds = %111
  %168 = load ptr, ptr %6, align 8, !tbaa !22
  %169 = getelementptr inbounds nuw %struct.FieldMatchContext, ptr %168, i32 0, i32 34
  %170 = load ptr, ptr %169, align 8, !tbaa !86
  %171 = icmp ne ptr %170, null
  br i1 %171, label %173, label %172

172:                                              ; preds = %167, %111
  store i32 -12, ptr %2, align 4
  store i32 1, ptr %10, align 4
  br label %174

173:                                              ; preds = %167
  store i32 0, ptr %2, align 4
  store i32 1, ptr %10, align 4
  br label %174

174:                                              ; preds = %173, %172, %67
  call void @llvm.lifetime.end.p0(i64 4, ptr %9) #10
  call void @llvm.lifetime.end.p0(i64 4, ptr %8) #10
  call void @llvm.lifetime.end.p0(i64 8, ptr %7) #10
  call void @llvm.lifetime.end.p0(i64 8, ptr %6) #10
  call void @llvm.lifetime.end.p0(i64 8, ptr %5) #10
  call void @llvm.lifetime.end.p0(i64 4, ptr %4) #10
  %175 = load i32, ptr %2, align 4
  ret i32 %175
}