; Function Attrs: nounwind uwtable
define internal range(i32 -2147483648, 1) i32 @config_input(ptr noundef readonly captures(none) %0) #1 {
  %2 = getelementptr inbounds nuw i8, ptr %0, i64 16
  %3 = load ptr, ptr %2, align 8, !tbaa !66
  %4 = getelementptr inbounds nuw i8, ptr %3, i64 72
  %5 = load ptr, ptr %4, align 8, !tbaa !4
  %6 = getelementptr inbounds nuw i8, ptr %0, i64 36
  %7 = load i32, ptr %6, align 4, !tbaa !60
  %8 = tail call ptr @av_pix_fmt_desc_get(i32 noundef %7) #10
  %9 = getelementptr inbounds nuw i8, ptr %0, i64 40
  %10 = load i32, ptr %9, align 8, !tbaa !64
  %11 = getelementptr inbounds nuw i8, ptr %0, i64 44
  %12 = load i32, ptr %11, align 4, !tbaa !65
  %13 = mul nsw i32 %12, %10
  %14 = sitofp i32 %13 to double
  %15 = fmul nsz double %14, 2.550000e+02
  %16 = getelementptr inbounds nuw i8, ptr %5, i64 144
  %17 = load double, ptr %16, align 8, !tbaa !67
  %18 = fmul nsz double %17, %15
  %19 = fdiv nsz double %18, 1.000000e+02
  %20 = fptosi double %19 to i64
  %21 = getelementptr inbounds nuw i8, ptr %5, i64 136
  store i64 %20, ptr %21, align 8, !tbaa !68
  %22 = getelementptr inbounds nuw i8, ptr %5, i64 184
  %23 = getelementptr inbounds nuw i8, ptr %5, i64 216
  %24 = load i32, ptr %6, align 4, !tbaa !60
  %25 = tail call i32 @av_image_alloc(ptr noundef nonnull %22, ptr noundef nonnull %23, i32 noundef %10, i32 noundef %12, i32 noundef %24, i32 noundef 32) #10
  %26 = icmp slt i32 %25, 0
  br i1 %26, label %91, label %27

27:                                               ; preds = %1
  %28 = getelementptr inbounds nuw i8, ptr %5, i64 232
  %29 = getelementptr inbounds nuw i8, ptr %5, i64 264
  %30 = load i32, ptr %6, align 4, !tbaa !60
  %31 = tail call i32 @av_image_alloc(ptr noundef nonnull %28, ptr noundef nonnull %29, i32 noundef %10, i32 noundef %12, i32 noundef %30, i32 noundef 32) #10
  %32 = icmp slt i32 %31, 0
  br i1 %32, label %91, label %33

33:                                               ; preds = %27
  %34 = getelementptr inbounds nuw i8, ptr %8, i64 9
  %35 = load i8, ptr %34, align 1, !tbaa !69
  %36 = zext i8 %35 to i32
  %37 = getelementptr inbounds nuw i8, ptr %5, i64 64
  store i32 %36, ptr %37, align 8, !tbaa !48
  %38 = getelementptr inbounds nuw i8, ptr %8, i64 10
  %39 = load i8, ptr %38, align 2, !tbaa !71
  %40 = zext i8 %39 to i32
  %41 = getelementptr inbounds nuw i8, ptr %5, i64 72
  store i32 %40, ptr %41, align 8, !tbaa !48
  %42 = getelementptr inbounds nuw i8, ptr %5, i64 108
  %43 = load i32, ptr %42, align 4, !tbaa !20
  %.not = icmp eq i32 %43, 0
  br i1 %.not, label %60, label %44

44:                                               ; preds = %33
  %45 = getelementptr inbounds nuw i8, ptr %3, i64 32
  %46 = load ptr, ptr %45, align 8, !tbaa !45
  %47 = getelementptr inbounds nuw i8, ptr %46, i64 8
  %48 = load ptr, ptr %47, align 8, !tbaa !42
  %49 = getelementptr inbounds nuw i8, ptr %48, i64 36
  %50 = load i32, ptr %49, align 4, !tbaa !60
  %51 = tail call ptr @av_pix_fmt_desc_get(i32 noundef %50) #10
  %52 = getelementptr inbounds nuw i8, ptr %51, i64 9
  %53 = load i8, ptr %52, align 1, !tbaa !69
  %54 = zext i8 %53 to i32
  %55 = getelementptr inbounds nuw i8, ptr %5, i64 68
  store i32 %54, ptr %55, align 4, !tbaa !48
  %56 = getelementptr inbounds nuw i8, ptr %51, i64 10
  %57 = load i8, ptr %56, align 2, !tbaa !71
  %58 = zext i8 %57 to i32
  %59 = getelementptr inbounds nuw i8, ptr %5, i64 76
  store i32 %58, ptr %59, align 4, !tbaa !48
  br label %60

60:                                               ; preds = %44, %33
  %61 = add nsw i32 %10, 15
  %62 = and i32 %61, -16
  %63 = getelementptr inbounds nuw i8, ptr %5, i64 288
  store i32 %62, ptr %63, align 8, !tbaa !72
  %64 = ashr i32 %10, 1
  %65 = add nsw i32 %64, 15
  %66 = and i32 %65, -16
  %67 = getelementptr inbounds nuw i8, ptr %5, i64 292
  store i32 %66, ptr %67, align 4, !tbaa !73
  %68 = sdiv i32 %12, 2
  %69 = add nsw i32 %68, 4
  %70 = mul nsw i32 %69, %62
  %71 = sext i32 %70 to i64
  %72 = tail call noalias ptr @av_calloc(i64 noundef %71, i64 noundef 1) #10
  %73 = getelementptr inbounds nuw i8, ptr %5, i64 296
  store ptr %72, ptr %73, align 8, !tbaa !74
  %74 = getelementptr inbounds nuw i8, ptr %5, i64 168
  %75 = load i32, ptr %74, align 8, !tbaa !29
  %76 = sdiv i32 %75, 2
  %77 = add nsw i32 %76, %10
  %78 = sdiv i32 %77, %75
  %79 = add nsw i32 %78, 1
  %80 = getelementptr inbounds nuw i8, ptr %5, i64 172
  %81 = load i32, ptr %80, align 4, !tbaa !30
  %82 = sdiv i32 %81, 2
  %83 = add nsw i32 %82, %12
  %84 = sdiv i32 %83, %81
  %85 = add nsw i32 %84, 1
  %86 = mul nsw i32 %85, %79
  %87 = sext i32 %86 to i64
  %88 = tail call ptr @av_malloc_array(i64 noundef %87, i64 noundef 16) #10
  %89 = getelementptr inbounds nuw i8, ptr %5, i64 280
  store ptr %88, ptr %89, align 8, !tbaa !75
  %90 = load ptr, ptr %73, align 8, !tbaa !74
  %.not49 = icmp eq ptr %90, null
  %.not50 = icmp eq ptr %88, null
  %or.cond = select i1 %.not49, i1 true, i1 %.not50
  %spec.select = select i1 %or.cond, i32 -12, i32 0
  br label %91

91:                                               ; preds = %60, %1, %27
  %.0 = phi i32 [ %25, %1 ], [ %31, %27 ], [ %spec.select, %60 ]
  ret i32 %.0
}